; Function Attrs: mustprogress nofree norecurse nosync nounwind willreturn memory(write, argmem: readwrite, inaccessiblemem: none) uwtable
define internal noundef i32 @parse_separator_arg(ptr noundef readonly captures(none) %0, ptr noundef %1, i32 noundef %2) #9 {
  %.not = icmp eq i32 %2, 0
  %.not4 = icmp eq ptr %1, null
  %4 = select i1 %.not4, ptr @.str.57, ptr %1
  %.sink = select i1 %.not, ptr %4, ptr null
  %5 = getelementptr inbounds nuw i8, ptr %0, i64 16
  %6 = load ptr, ptr %5, align 8, !tbaa !16
  store ptr %.sink, ptr %6, align 8, !tbaa !4
  ret i32 0
}